target datalayout = "e-m:e-p270:32:32-p271:32:32-p272:64:64-i64:64-i128:128-f80:128-n8:16:32:64-S128"
target triple = "x86_64-pc-linux-gnu"

%struct.Abc_Ntk_t_ = type { i32, i32, ptr, ptr, ptr, ptr, ptr, ptr, ptr, ptr, ptr, ptr, ptr, [11 x i32], i32, i32, i32, i32, ptr, i32, ptr, ptr, i32, i32, i32, double, i32, %struct.Vec_Int_t_, ptr, ptr, ptr, ptr, ptr, float, i32, ptr, ptr, ptr, ptr, ptr, ptr, ptr, ptr, ptr, ptr, ptr, ptr, ptr, ptr, ptr, ptr, ptr, ptr, ptr, ptr, ptr, ptr }
%struct.Vec_Int_t_ = type { i32, i32, ptr }
%struct.Abc_Obj_t_ = type { ptr, ptr, i32, i32, %struct.Vec_Int_t_, %struct.Vec_Int_t_, %union.anon, %union.anon.0 }
%union.anon = type { ptr }
%union.anon.0 = type { ptr }
%struct.Vec_Ptr_t_ = type { i32, i32, ptr }

; Function Attrs: inlinehint nounwind uwtable
define internal ptr @Vec_PtrEntry(ptr noundef %0, i32 noundef %1) #3 {
  %3 = alloca ptr, align 8
  %4 = alloca i32, align 4
  store ptr %0, ptr %3, align 8, !tbaa !58
  store i32 %1, ptr %4, align 4, !tbaa !27
  %5 = load ptr, ptr %3, align 8, !tbaa !58
  %6 = getelementptr inbounds nuw %struct.Vec_Ptr_t_, ptr %5, i32 0, i32 2
  %7 = load ptr, ptr %6, align 8, !tbaa !71
  %8 = load i32, ptr %4, align 4, !tbaa !27
  %9 = sext i32 %8 to i64
  %10 = getelementptr inbounds ptr, ptr %7, i64 %9
  %11 = load ptr, ptr %10, align 8, !tbaa !72
  ret ptr %11
}

; Function Attrs: inlinehint nounwind uwtable
define internal i32 @Abc_ObjIsLatch(ptr noundef %0) #3 {
  %2 = alloca ptr, align 8
  store ptr %0, ptr %2, align 8, !tbaa !29
  %3 = load ptr, ptr %2, align 8, !tbaa !29
  %4 = getelementptr inbounds nuw %struct.Abc_Obj_t_, ptr %3, i32 0, i32 3
  %5 = load i32, ptr %4, align 4
  %6 = and i32 %5, 15
  %7 = icmp eq i32 %6, 8
  %8 = zext i1 %7 to i32
  ret i32 %8
}

; Function Attrs: inlinehint nounwind uwtable
define internal ptr @Abc_NtkBox(ptr noundef %0, i32 noundef %1) #3 {
  %3 = alloca ptr, align 8
  %4 = alloca i32, align 4
  store ptr %0, ptr %3, align 8, !tbaa !3
  store i32 %1, ptr %4, align 4, !tbaa !27
  %5 = load ptr, ptr %3, align 8, !tbaa !3
  %6 = getelementptr inbounds nuw %struct.Abc_Ntk_t_, ptr %5, i32 0, i32 11
  %7 = load ptr, ptr %6, align 8, !tbaa !35
  %8 = load i32, ptr %4, align 4, !tbaa !27
  %9 = call ptr @Vec_PtrEntry(ptr noundef %7, i32 noundef %8)
  ret ptr %9
}

; Function Attrs: inlinehint nounwind uwtable
define internal i32 @Vec_PtrSize(ptr noundef %0) #3 {
  %2 = alloca ptr, align 8
  store ptr %0, ptr %2, align 8, !tbaa !58
  %3 = load ptr, ptr %2, align 8, !tbaa !58
  %4 = getelementptr inbounds nuw %struct.Vec_Ptr_t_, ptr %3, i32 0, i32 1
  %5 = load i32, ptr %4, align 4, !tbaa !59
  ret i32 %5
}

; Function Attrs: inlinehint nounwind uwtable
define internal i32 @Abc_NtkHasBlackbox(ptr noundef %0) #3 {
  %2 = alloca ptr, align 8
  store ptr %0, ptr %2, align 8, !tbaa !3
  %3 = load ptr, ptr %2, align 8, !tbaa !3
  %4 = getelementptr inbounds nuw %struct.Abc_Ntk_t_, ptr %3, i32 0, i32 1
  %5 = load i32, ptr %4, align 4, !tbaa !39
  %6 = icmp eq i32 %5, 6
  %7 = zext i1 %6 to i32
  ret i32 %7
}

; Function Attrs: nounwind uwtable
define i32 @Abc_NtkIsAcyclicHierarchy_rec(ptr noundef %0) #0 {
  %2 = alloca i32, align 4
  %3 = alloca ptr, align 8
  %4 = alloca ptr, align 8
  %5 = alloca ptr, align 8
  %6 = alloca i32, align 4
  %7 = alloca i32, align 4
  store ptr %0, ptr %3, align 8, !tbaa !3
  call void @llvm.lifetime.start.p0(i64 8, ptr %4) #8
  call void @llvm.lifetime.start.p0(i64 8, ptr %5) #8
  call void @llvm.lifetime.start.p0(i64 4, ptr %6) #8
  %8 = load ptr, ptr %3, align 8, !tbaa !3
  %9 = getelementptr inbounds nuw %struct.Abc_Ntk_t_, ptr %8, i32 0, i32 22
  %10 = load i32, ptr %9, align 8, !tbaa !79
  %11 = icmp ne i32 %10, 0
  br i1 %11, label %12, label %13

12:                                               ; preds = %1
  store i32 1, ptr %2, align 4
  store i32 1, ptr %7, align 4
  br label %62

13:                                               ; preds = %1
  %14 = load ptr, ptr %3, align 8, !tbaa !3
  %15 = getelementptr inbounds nuw %struct.Abc_Ntk_t_, ptr %14, i32 0, i32 22
  store i32 1, ptr %15, align 8, !tbaa !79
  %16 = load ptr, ptr %3, align 8, !tbaa !3
  %17 = call i32 @Abc_NtkHasBlackbox(ptr noundef %16)
  %18 = icmp ne i32 %17, 0
  br i1 %18, label %19, label %20

19:                                               ; preds = %13
  store i32 1, ptr %2, align 4
  store i32 1, ptr %7, align 4
  br label %62

20:                                               ; preds = %13
  store i32 0, ptr %6, align 4, !tbaa !27
  br label %21

21:                                               ; preds = %58, %20
  %22 = load i32, ptr %6, align 4, !tbaa !27
  %23 = load ptr, ptr %3, align 8, !tbaa !3
  %24 = getelementptr inbounds nuw %struct.Abc_Ntk_t_, ptr %23, i32 0, i32 11
  %25 = load ptr, ptr %24, align 8, !tbaa !35
  %26 = call i32 @Vec_PtrSize(ptr noundef %25)
  %27 = icmp slt i32 %22, %26
  br i1 %27, label %28, label %32

28:                                               ; preds = %21
  %29 = load ptr, ptr %3, align 8, !tbaa !3
  %30 = load i32, ptr %6, align 4, !tbaa !27
  %31 = call ptr @Abc_NtkBox(ptr noundef %29, i32 noundef %30)
  store ptr %31, ptr %5, align 8, !tbaa !29
  br label %32

32:                                               ; preds = %28, %21
  %33 = phi i1 [ false, %21 ], [ true, %28 ]
  br i1 %33, label %34, label %61

34:                                               ; preds = %32
  %35 = load ptr, ptr %5, align 8, !tbaa !29
  %36 = call i32 @Abc_ObjIsLatch(ptr noundef %35)
  %37 = icmp ne i32 %36, 0
  br i1 %37, label %38, label %39

38:                                               ; preds = %34
  br label %58

39:                                               ; preds = %34
  %40 = load ptr, ptr %5, align 8, !tbaa !29
  %41 = getelementptr inbounds nuw %struct.Abc_Obj_t_, ptr %40, i32 0, i32 6
  %42 = load ptr, ptr %41, align 8, !tbaa !53
  store ptr %42, ptr %4, align 8, !tbaa !3
  %43 = load ptr, ptr %4, align 8, !tbaa !3
  %44 = getelementptr inbounds nuw %struct.Abc_Ntk_t_, ptr %43, i32 0, i32 23
  %45 = load i32, ptr %44, align 4, !tbaa !80
  %46 = icmp ne i32 %45, 0
  br i1 %46, label %47, label %48

47:                                               ; preds = %39
  store i32 0, ptr %2, align 4
  store i32 1, ptr %7, align 4
  br label %62

48:                                               ; preds = %39
  %49 = load ptr, ptr %3, align 8, !tbaa !3
  %50 = getelementptr inbounds nuw %struct.Abc_Ntk_t_, ptr %49, i32 0, i32 23
  store i32 1, ptr %50, align 4, !tbaa !80
  %51 = load ptr, ptr %4, align 8, !tbaa !3
  %52 = call i32 @Abc_NtkIsAcyclicHierarchy_rec(ptr noundef %51)
  %53 = icmp ne i32 %52, 0
  br i1 %53, label %55, label %54

54:                                               ; preds = %48
  store i32 0, ptr %2, align 4
  store i32 1, ptr %7, align 4
  br label %62

55:                                               ; preds = %48
  %56 = load ptr, ptr %3, align 8, !tbaa !3
  %57 = getelementptr inbounds nuw %struct.Abc_Ntk_t_, ptr %56, i32 0, i32 23
  store i32 0, ptr %57, align 4, !tbaa !80
  br label %58

58:                                               ; preds = %55, %38
  %59 = load i32, ptr %6, align 4, !tbaa !27
  %60 = add nsw i32 %59, 1
  store i32 %60, ptr %6, align 4, !tbaa !27
  br label %21, !llvm.loop !81

61:                                               ; preds = %32
  store i32 1, ptr %2, align 4
  store i32 1, ptr %7, align 4
  br label %62

62:                                               ; preds = %61, %54, %47, %19, %12
  call void @llvm.lifetime.end.p0(i64 4, ptr %6) #8
  call void @llvm.lifetime.end.p0(i64 8, ptr %5) #8
  call void @llvm.lifetime.end.p0(i64 8, ptr %4) #8
  %63 = load i32, ptr %2, align 4
  ret i32 %63
}