; Function Attrs: nofree nosync nounwind memory(readwrite, inaccessiblemem: none) uwtable
define range(i32 0, 2) i32 @Abc_NtkIsAcyclicHierarchy_rec(ptr noundef captures(none) %0) local_unnamed_addr #4 {
  %2 = getelementptr inbounds nuw i8, ptr %0, i64 192
  %3 = load i32, ptr %2, align 8, !tbaa !74
  %.not = icmp eq i32 %3, 0
  br i1 %.not, label %4, label %.critedge

4:                                                ; preds = %1
  store i32 1, ptr %2, align 8, !tbaa !74
  %5 = getelementptr i8, ptr %0, i64 4
  %.val = load i32, ptr %5, align 4, !tbaa !26
  %.not22 = icmp eq i32 %.val, 6
  br i1 %.not22, label %.critedge, label %.preheader

.preheader:                                       ; preds = %4
  %6 = getelementptr inbounds nuw i8, ptr %0, i64 196
  %7 = getelementptr inbounds nuw i8, ptr %0, i64 80
  %8 = load ptr, ptr %7, align 8, !tbaa !28
  %9 = getelementptr i8, ptr %8, i64 4
  %.val1924 = load i32, ptr %9, align 4, !tbaa !30
  %10 = icmp sgt i32 %.val1924, 0
  br i1 %10, label %.lr.ph, label %.critedge

.lr.ph:                                           ; preds = %.preheader, %25
  %11 = phi ptr [ %26, %25 ], [ %8, %.preheader ]
  %indvars.iv = phi i64 [ %indvars.iv.next, %25 ], [ 0, %.preheader ]
  %12 = getelementptr i8, ptr %11, i64 8
  %.val20.val = load ptr, ptr %12, align 8, !tbaa !38
  %13 = getelementptr inbounds nuw ptr, ptr %.val20.val, i64 %indvars.iv
  %14 = load ptr, ptr %13, align 8, !tbaa !39
  %15 = getelementptr i8, ptr %14, i64 20
  %.val21 = load i32, ptr %15, align 4
  %16 = and i32 %.val21, 15
  %.not23 = icmp eq i32 %16, 8
  br i1 %.not23, label %25, label %17

17:                                               ; preds = %.lr.ph
  %18 = getelementptr inbounds nuw i8, ptr %14, i64 56
  %19 = load ptr, ptr %18, align 8, !tbaa !52
  %20 = getelementptr inbounds nuw i8, ptr %19, i64 196
  %21 = load i32, ptr %20, align 4, !tbaa !75
  %.not17 = icmp eq i32 %21, 0
  br i1 %.not17, label %22, label %.critedge

22:                                               ; preds = %17
  store i32 1, ptr %6, align 4, !tbaa !75
  %23 = tail call i32 @Abc_NtkIsAcyclicHierarchy_rec(ptr noundef nonnull %19)
  %.not18 = icmp eq i32 %23, 0
  br i1 %.not18, label %.critedge, label %24

24:                                               ; preds = %22
  store i32 0, ptr %6, align 4, !tbaa !75
  %.pre = load ptr, ptr %7, align 8, !tbaa !28
  br label %25

25:                                               ; preds = %.lr.ph, %24
  %26 = phi ptr [ %11, %.lr.ph ], [ %.pre, %24 ]
  %indvars.iv.next = add nuw nsw i64 %indvars.iv, 1
  %27 = getelementptr i8, ptr %26, i64 4
  %.val19 = load i32, ptr %27, align 4, !tbaa !30
  %28 = sext i32 %.val19 to i64
  %29 = icmp slt i64 %indvars.iv.next, %28
  br i1 %29, label %.lr.ph, label %.critedge, !llvm.loop !76

.critedge:                                        ; preds = %17, %22, %25, %.preheader, %4, %1
  %.014 = phi i32 [ 1, %1 ], [ 1, %4 ], [ 1, %.preheader ], [ 0, %17 ], [ 0, %22 ], [ 1, %25 ]
  ret i32 %.014
}